target datalayout = "e-m:e-p270:32:32-p271:32:32-p272:64:64-i64:64-i128:128-f80:128-n8:16:32:64-S128"
target triple = "x86_64-pc-linux-gnu"

@XML_FILE = global ptr null, align 8
@XML_FILE_NAME = internal global ptr null, align 8
@.str.52 = private unnamed_addr constant [14 x i8] c"</testsuite>\0A\00", align 1
@.str.53 = private unnamed_addr constant [33 x i8] c" ( test results written to %s )\0A\00", align 1

; Function Attrs: nounwind uwtable
define i32 @ctest_xml_fini() #0 {
  %1 = alloca i32, align 4
  %2 = load ptr, ptr @XML_FILE, align 8, !tbaa !27
  %3 = icmp ne ptr %2, null
  br i1 %3, label %5, label %4

4:                                                ; preds = %0
  store i32 0, ptr %1, align 4
  br label %12

5:                                                ; preds = %0
  %6 = load ptr, ptr @XML_FILE, align 8, !tbaa !27
  %7 = call i32 (ptr, ptr, ...) @fprintf(ptr noundef %6, ptr noundef @.str.52) #12
  %8 = load ptr, ptr @XML_FILE, align 8, !tbaa !27
  %9 = call i32 @fclose(ptr noundef %8)
  %10 = load ptr, ptr @XML_FILE_NAME, align 8, !tbaa !15
  %11 = call i32 (ptr, ...) @printf(ptr noundef @.str.53, ptr noundef %10)
  store ptr null, ptr @XML_FILE, align 8, !tbaa !27
  store i32 0, ptr %1, align 4
  br label %12

12:                                               ; preds = %5, %4
  %13 = load i32, ptr %1, align 4
  ret i32 %13
}