; Function Attrs: nofree nounwind uwtable
define noundef i32 @ctest_xml_fini() local_unnamed_addr #2 {
  %1 = load ptr, ptr @XML_FILE, align 8, !tbaa !16
  %.not = icmp eq ptr %1, null
  br i1 %.not, label %8, label %2

2:                                                ; preds = %0
  %3 = tail call i64 @fwrite(ptr nonnull @.str.52, i64 13, i64 1, ptr nonnull %1)
  %4 = load ptr, ptr @XML_FILE, align 8, !tbaa !16
  %5 = tail call i32 @fclose(ptr noundef %4)
  %6 = load ptr, ptr @XML_FILE_NAME, align 8, !tbaa !21
  %7 = tail call i32 (ptr, ...) @printf(ptr noundef nonnull dereferenceable(1) @.str.53, ptr noundef %6)
  store ptr null, ptr @XML_FILE, align 8, !tbaa !16
  br label %8

8:                                                ; preds = %0, %2
  ret i32 0
}